(lp0
F-174.9389783733
aF-174.9831303476
aF-175.0
aF-174.9752818124
aF-174.9690652076
aF-174.9865557303
aF-175.0
aF-174.9703374886
aF-174.9938270066
aF-174.9736010914
aF-174.9098786485
aF-175.0
aF-174.9986935035
aF-175.0
aF-174.979695724
aF-174.930363704
aF-175.0
aF-174.9816543212
aF-174.9625466628
aF-175.0
aF-175.0
aF-174.8483284959
aF-174.9897931331
aF-175.0
aF-174.996470874
aF-175.0
aF-175.0
aF-174.94125284
aF-175.0
aF-174.9448705915
aF-175.0
aF-175.0
aF-174.9663919847
aF-174.9816627525
aF-174.9942514108
aF-174.978803974
aF-174.9890686186
aF-174.7970267234
aF-174.9919800768
aF-174.9827836047
aF-174.9913124966
aF-175.0
aF-174.9693754855
aF-174.9768336508
aF-174.9751972472
aF-175.0
aF-175.0
aF-174.9664962325
aF-175.0
aF-174.948501309
aF-174.8950272324
aF-175.0
aF-174.9297353275
aF-174.9945275686
aF-175.0
aF-174.9809942377
aF-174.9455962751
aF-175.0
aF-174.9138036251
aF-174.9958551691
aF-174.9833652099
aF-174.9822912384
aF-174.9973700501
aF-174.9509067128
aF-175.0
aF-174.8781420891
aF-175.0
aF-175.0
aF-174.9825844926
aF-174.9804186721
aF-175.0
aF-175.0
aF-174.9980736612
aF-175.0
aF-174.98801769
aF-174.9772309405
aF-174.9765829356
aF-175.0
aF-175.0
aF-175.0
aF-174.9628554244
aF-174.912801864
aF-175.0
aF-174.9649354624
aF-175.0
aF-175.0
aF-174.9917680703
aF-174.9440066195
aF-174.9962156346
aF-175.0
aF-174.9714044371
aF-175.0
aF-174.9775846363
aF-175.0
aF-174.976307868
aF-175.0
aF-174.7879608995
aF-174.9242149537
aF-175.0
aF-174.9600100391
aF-174.9554714279
aF-174.9439799035
aF-174.9782041239
aF-175.0
aF-174.9794844819
aF-174.9911492581
aF-174.9884413748
aF-175.0
aF-175.0
aF-174.9975422
aF-175.0
aF-174.9853369437
aF-174.9779855523
aF-174.9990803075
aF-175.0
aF-174.923352431
aF-174.8683643859
aF-174.8688463136
aF-174.9635288652
aF-175.0
aF-174.9940366511
aF-174.9886231369
aF-175.0
aF-174.9845193719
aF-175.0
aF-174.9905534408
aF-174.883956026
aF-174.9703967858
aF-174.9451746724
aF-175.0
aF-174.8774974697
aF-174.9861690504
aF-174.99999493543524
aF-175.0
aF-174.9226099175
aF-175.0
aF-175.0
aF-174.9541044378
aF-174.9788186537
aF-175.0
aF-174.9717519685
aF-174.8889261961
aF-174.9937843975
aF-175.0
aF-174.9575838518
aF-174.9467286697
aF-174.9245896455
aF-174.9692106847
aF-175.0
aF-175.0
aF-174.9964664914
aF-174.9783379737
aF-175.0
aF-175.0
aF-174.9871924752
aF-175.0
aF-174.9833929947
aF-174.9538929131
aF-174.9737729723
aF-174.9490433121
aF-174.9511791708
aF-175.0
aF-174.9770850803
aF-175.0
aF-175.0
aF-175.0
aF-174.9957849447
aF-174.9942546991
aF-175.0
aF-174.9584132364
aF-175.0
aF-175.0
aF-174.9121396138
aF-174.9344005096
aF-174.9856913577
aF-175.0
aF-174.9983422739
aF-174.989528971
aF-174.8496724442
aF-174.932231015
aF-175.0
aF-174.9888371548
aF-175.0
aF-174.9818257135
aF-175.0
aF-175.0
aF-175.0
aF-175.0
aF-174.9874502817
aF-174.9987551439
aF-174.9734322564
aF-174.9827464611
aF-175.0
aF-174.966243667
aF-175.0
aF-175.0
aF-174.9660949944
aF-174.9422732769
aF-175.0
aF-174.9680502569
aF-174.8984453318
aF-175.0
aF-175.0
aF-174.9298049832
aF-174.9892767261
aF-175.0
aF-175.0
aF-174.989599718
aF-174.9869050693
aF-174.8084104918
aF-174.9817731773
aF-174.9957253141
aF-174.9255651465
aF-174.9624450176
aF-175.0
aF-175.0
aF-175.0
aF-174.9288155524
aF-174.877357904
aF-174.9338850439
aF-174.9730338357
aF-174.9058645903
aF-174.9998310918
aF-174.9565647991
aF-174.9351380073
aF-175.0
aF-175.0
aF-175.0
aF-174.9892176583
aF-174.9581250309
aF-175.0
aF-174.9391401939
aF-175.0
aF-174.9878672861
aF-175.0
aF-174.9842846581
aF-174.9672426384
aF-174.9987013294
aF-175.0
aF-174.9519227818
aF-174.9648809524
aF-174.9711092153
aF-175.0
aF-175.0
aF-174.9673076695
aF-174.8969244008
aF-175.0
aF-175.0
aF-174.8235749685
aF-174.9327144212
aF-175.0
aF-175.0
aF-174.954230949
aF-174.9405632882
a.