(lp0
F-270.0
aF-269.9298049832
aF-269.9892767261
aF-270.0
aF-270.0
aF-269.989599718
aF-269.9869050693
aF-269.8084104918
aF-269.9817731773
aF-269.9957253141
aF-269.9255651465
aF-269.9624450176
aF-270.0
aF-270.0
aF-270.0
aF-269.9288155524
aF-269.877357904
aF-269.9338850439
aF-269.9730338357
aF-269.9058645903
aF-269.9998310918
aF-269.9565647991
aF-269.9351380073
aF-270.0
aF-270.0
aF-270.0
aF-269.9892176583
aF-269.9581250309
aF-270.0
aF-269.9391401939
aF-270.0
aF-269.9878672861
aF-270.0
aF-269.9842846581
aF-269.9672426384
aF-269.9987013294
aF-270.0
aF-269.9519227818
aF-269.9648809524
aF-269.9711092153
aF-270.0
aF-270.0
aF-269.9673076695
aF-269.8969244008
aF-270.0
aF-270.0
aF-269.8235749685
aF-269.9327144212
aF-270.0
aF-270.0
aF-269.954230949
aF-269.9405632882
aF-269.8653083778
aF-269.899362627
aF-270.0
aF-269.9705972035
aF-270.0
aF-270.0
aF-269.9963908056
aF-270.0
aF-269.9596634458
aF-269.8896536212
aF-269.9631276182
aF-270.0
aF-270.0
aF-270.0
aF-269.8645424123
aF-269.9822138382
aF-270.0
aF-270.0
aF-269.9677853209
aF-269.9883974227
aF-269.9152228741
aF-269.9934700117
aF-269.9769578652
aF-269.9185852409
aF-269.9410752408
aF-270.0
aF-269.9706110263
aF-269.9978444339
aF-270.0
aF-269.8691276938
aF-270.0
aF-269.9913012158
aF-269.9302029839
aF-270.0
aF-269.9626740362
aF-269.95321187
aF-270.0
aF-269.9241430527
aF-269.9420480591
aF-269.9561541212
aF-270.0
aF-270.0
aF-269.9828562065
aF-269.9946006078
aF-269.9938818016
aF-269.9823321425
aF-270.0
aF-270.0
aF-270.0
a.