(lp0
F-159.8653083778
aF-159.899362627
aF-160.0
aF-159.9705972035
aF-160.0
aF-160.0
aF-159.9963908056
aF-160.0
aF-159.9596634458
aF-159.8896536212
aF-159.9631276182
aF-160.0
aF-160.0
aF-160.0
aF-159.8645424123
aF-159.9822138382
aF-160.0
aF-160.0
aF-159.9677853209
aF-159.9883974227
aF-159.9152228741
aF-159.9934700117
aF-159.9769578652
aF-159.9185852409
aF-159.9410752408
aF-160.0
aF-159.9706110263
aF-159.9978444339
aF-160.0
aF-159.8691276938
aF-160.0
aF-159.9913012158
aF-159.9302029839
aF-160.0
aF-159.9626740362
aF-159.95321187
aF-160.0
aF-159.9241430527
aF-159.9420480591
aF-159.9561541212
aF-160.0
aF-160.0
aF-159.9828562065
aF-159.9946006078
aF-159.9938818016
aF-159.9823321425
aF-160.0
aF-160.0
aF-160.0
aF-159.9731262053
aF-159.9923795883
aF-159.9810706567
aF-160.0
aF-159.9572774058
aF-159.9668807816
aF-159.9667421169
aF-159.9339782442
aF-159.9185020297
aF-159.9917571694
aF-159.9730374694
aF-159.9982035954
aF-159.9751514148
aF-160.0
aF-159.8719322886
aF-159.8647044696
aF-159.9201448321
aF-160.0
aF-159.9820422005
aF-160.0
aF-159.9775602997
aF-159.9643289936
aF-159.931193445
aF-159.8670785418
aF-160.0
aF-159.9220811326
aF-159.9837064929
aF-159.9023677012
aF-160.0
aF-160.0
aF-160.0
aF-159.9901172583
aF-159.9964020688
aF-159.9878014501
aF-159.990285992
aF-159.9037958447
aF-159.9833025897
aF-160.0
aF-159.9436111614
aF-159.9792578532
aF-159.9405043854
aF-159.9515199496
aF-159.9692975391
aF-159.9201985916
aF-159.9814635275
aF-160.0
aF-160.0
aF-159.9613881459
aF-159.9548544562
aF-160.0
aF-159.9798779852
aF-159.9821690078
aF-160.0
aF-159.9768306933
aF-160.0
aF-159.9065878138
aF-159.977879624
aF-160.0
aF-159.9704437209
aF-159.9430884829
aF-159.9383695032
aF-159.9959368227
aF-159.973888011
aF-160.0
aF-160.0
aF-159.9794661724
aF-159.8874383306
aF-160.0
aF-159.9992089564
aF-159.99992519888573
aF-159.9771070048
aF-159.9641727508
aF-159.9965968453
aF-159.957367318
aF-159.9600621912
aF-159.9484934032
aF-159.9522834496
aF-159.8362201592
aF-160.0
aF-159.9437590858
aF-159.9760151086
aF-160.0
aF-160.0
aF-160.0
aF-159.956816449
aF-160.0
aF-159.9633273181
aF-159.8876765574
aF-159.9863224198
aF-159.9972893924
aF-159.9617714051
aF-159.94782766
aF-159.9566217364
aF-159.992585044
aF-159.9763257576
aF-159.9104754891
aF-159.9313056152
aF-160.0
aF-160.0
aF-159.8861721923
aF-159.9689906769
aF-159.9863552743
aF-160.0
aF-160.0
aF-159.9173155678
aF-160.0
aF-160.0
aF-159.9869328038
aF-159.9537683504
aF-159.7954582674
aF-160.0
aF-160.0
aF-159.9646635449
aF-159.9753053974
aF-160.0
aF-159.9856333514
aF-159.9795228472
aF-159.9639244478
aF-159.9607837692
aF-159.9912069427
aF-159.9866223299
aF-159.9827888137
aF-159.9564963504
aF-159.9379919798
aF-159.9845041796
aF-159.9384953188
aF-159.9967883842
aF-159.9758142586
aF-160.0
aF-160.0
aF-159.9287737013
aF-159.9908143264
aF-159.9386956271
aF-160.0
aF-159.9614861433
aF-159.9778858583
aF-159.9317677965
aF-159.8684116329
aF-159.9619981533
aF-160.0
aF-160.0
aF-159.9652636721
aF-160.0
aF-160.0
aF-159.8973232787
aF-160.0
aF-159.989793285
aF-159.8970945477
aF-159.9762352479
aF-159.9598690115
aF-159.8869003416
aF-159.9657673558
aF-159.9787956361
aF-159.9558266874
aF-160.0
aF-160.0
aF-160.0
aF-160.0
aF-159.9748314774
aF-160.0
aF-159.9642426331
aF-159.9744855797
aF-160.0
aF-159.9881625439
aF-159.9751767664
aF-159.9967814752
aF-159.9461599796
aF-159.9965307395
aF-159.9744242476
aF-159.9599452055
aF-159.9820396203
aF-160.0
aF-160.0
aF-159.9851957679
aF-160.0
aF-160.0
aF-160.0
aF-159.9558639468
aF-159.9979061355
aF-160.0
aF-159.9188613345
aF-160.0
aF-159.9566502841
aF-159.9428810499
aF-160.0
aF-160.0
aF-159.979804732
aF-159.9938578306
aF-159.9532113243
aF-159.9876465334
aF-159.9426738177
aF-159.9682763161
aF-160.0
aF-159.9438128109
aF-159.9525823054
aF-160.0
aF-160.0
aF-159.9743976148
aF-159.9832059425
aF-159.9651974928
aF-159.8918348365
aF-160.0
aF-159.8982302593
aF-159.9474148579
aF-160.0
a.