(lp0
I0
aI0
aI-1
aI0
aI-2
aI-2
aI0
aI-2
aI-1
aI0
aI-2
aI0
aI0
aI-1
aI0
aI-2
aI-1
aI-2
aI-2
aI-2
aI-2
aI-2
aI0
aI0
aI-1
aI-1
aI-2
aI0
aI-1
aI0
aI0
aI-1
aI-1
aI0
aI0
aI0
aI0
aI-1
aI-1
aI-1
aI0
aI-2
aI-2
aI-2
aI-2
aI-1
aI-2
aI0
aI-1
aI-1
aI-1
aI-2
aI-1
aI-1
aI-2
aI-1
aI-1
aI-1
aI0
aI-1
aI0
aI-2
aI0
aI-1
aI-2
aI-1
aI0
aI-2
aI-1
aI-1
aI-2
aI-2
aI0
aI-2
aI-2
a.