(lp0
F-256.9731262053
aF-256.9923795883
aF-256.9810706567
aF-257.0
aF-256.9572774058
aF-256.9668807816
aF-256.9667421169
aF-256.9339782442
aF-256.9185020297
aF-256.9917571694
aF-256.9730374694
aF-256.9982035954
aF-256.9751514148
aF-257.0
aF-256.8719322886
aF-256.8647044696
aF-256.9201448321
aF-257.0
aF-256.9820422005
aF-257.0
aF-256.9775602997
aF-256.9643289936
aF-256.931193445
aF-256.8670785418
aF-257.0
aF-256.9220811326
aF-256.9837064929
aF-256.9023677012
aF-257.0
aF-257.0
aF-257.0
aF-256.9901172583
aF-256.9964020688
aF-256.9878014501
aF-256.990285992
aF-256.9037958447
aF-256.9833025897
aF-257.0
aF-256.9436111614
aF-256.9792578532
aF-256.9405043854
aF-256.9515199496
aF-256.9692975391
aF-256.9201985916
aF-256.9814635275
aF-257.0
aF-257.0
aF-256.9613881459
aF-256.9548544562
aF-257.0
aF-256.9798779852
aF-256.9821690078
aF-257.0
aF-256.9768306933
aF-257.0
aF-256.9065878138
aF-256.977879624
aF-257.0
aF-256.9704437209
aF-256.9430884829
aF-256.9383695032
aF-256.9959368227
aF-256.973888011
aF-257.0
aF-257.0
aF-256.9794661724
aF-256.8874383306
aF-257.0
aF-256.9992089564
aF-256.99992519888576
aF-256.9771070048
aF-256.9641727508
aF-256.9965968453
aF-256.957367318
aF-256.9600621912
aF-256.9484934032
aF-256.9522834496
aF-256.8362201592
aF-257.0
aF-256.9437590858
aF-256.9760151086
aF-257.0
aF-257.0
aF-257.0
aF-256.956816449
aF-257.0
aF-256.9633273181
aF-256.8876765574
aF-256.9863224198
aF-256.9972893924
aF-256.9617714051
aF-256.94782766
aF-256.9566217364
aF-256.992585044
aF-256.9763257576
aF-256.9104754891
aF-256.9313056152
aF-257.0
aF-257.0
aF-256.8861721923
aF-256.9689906769
a.