(lp0
F-132.9688602665
aF-133.0
aF-133.0
aF-132.9138036251
aF-133.0
aF-133.0
aF-132.987198682
aF-132.8591695266
aF-133.0
aF-133.0
aF-132.9218253548
aF-132.8137826435
aF-133.0
aF-132.9288155524
aF-132.9149476894
aF-132.9891661776
aF-133.0
aF-132.9456764752
aF-133.0
aF-133.0
aF-133.0
aF-132.8876765574
aF-133.0
aF-133.0
aF-132.7970267234
aF-132.9502298221
aF-132.9173155678
aF-132.9784782047
aF-132.9671079851
aF-132.9526534936
aF-132.8919175222
aF-132.9364940156
aF-132.972359704
aF-133.0
aF-132.9842820992
aF-132.9602038958
aF-133.0
aF-132.9660881563
aF-133.0
aF-133.0
aF-133.0
aF-132.9772309405
aF-133.0
aF-133.0
aF-132.9891631049
aF-132.9776654825
aF-133.0
aF-132.9647338873
aF-132.9098500688
aF-132.9936749527
aF-132.9633643016
aF-132.9965307395
aF-132.9891157954
aF-133.0
aF-132.9766526205
aF-132.9820022222
aF-132.9146259753
aF-133.0
aF-132.996213941
aF-132.9896031485
aF-132.9631276182
aF-133.0
aF-132.956086484
aF-133.0
aF-132.9872592836
aF-133.0
aF-133.0
aF-133.0
aF-133.0
aF-132.9255651465
aF-132.936391467
aF-133.0
aF-132.9245896455
aF-133.0
aF-132.9949758202
aF-132.9874502817
aF-132.9770661325
aF-132.9591556637
aF-132.9492139875
aF-132.9879735142
aF-132.9983315729
aF-133.0
aF-132.9998889871
aF-132.9158872883
aF-132.8606995236
aF-133.0
aF-133.0
aF-133.0
aF-133.0
aF-133.0
aF-132.9705916984
aF-133.0
aF-133.0
aF-132.9261349886
aF-132.9970274219
aF-132.9950219687
aF-132.9900502062
aF-132.9917043399
aF-133.0
aF-132.9988054887
aF-132.9797770224
aF-133.0
aF-132.9972893924
aF-133.0
aF-132.9463612766
aF-133.0
aF-132.984673228
aF-132.9917680703
aF-132.9607837692
aF-132.955219267
aF-132.9884364395
aF-132.9726873457
aF-132.957367318
aF-132.9422732769
aF-132.9839251672
aF-132.9384953188
aF-133.0
aF-132.9588179767
aF-132.940934268
aF-132.9716041283
aF-132.9530727067
aF-133.0
aF-132.9689216727
aF-132.9710708107
aF-132.9461599796
aF-133.0
aF-133.0
aF-133.0
aF-132.9913012158
aF-132.939056406
aF-132.9113688887
aF-132.9748314774
aF-133.0
aF-132.9420801839
aF-132.9628554244
aF-132.8669096634
aF-132.9883403759
aF-132.9900502062
aF-132.966675613
aF-132.9880411336
aF-132.9834964599
aF-132.9526135767
aF-132.9419669101
aF-132.9440066195
aF-133.0
aF-132.99999493543524
aF-132.9077919425
aF-132.9837371408
aF-133.0
aF-133.0
aF-132.9333405715
aF-133.0
aF-132.9009994363
aF-133.0
aF-133.0
aF-132.9586608967
aF-133.0
aF-132.984656923
aF-132.9510769642
aF-132.9919893808
aF-132.9746269216
aF-133.0
aF-133.0
aF-132.9874359686
aF-132.9464548678
aF-132.9531208319
aF-132.9820989064
aF-132.9967814752
aF-132.9834525427
aF-132.9452685738
aF-132.905534602
aF-132.9625679507
aF-132.9585334978
aF-132.9918448342
aF-132.9553945732
aF-132.9911492581
aF-133.0
aF-132.977281724
aF-133.0
aF-132.9982824411
aF-132.946939423
aF-132.997882905
aF-132.9967993221
aF-132.9646535654
aF-133.0
aF-133.0
aF-132.9669181292
aF-133.0
aF-132.9788501338
aF-132.9396362698
aF-132.7834612254
aF-132.9423685863
aF-133.0
aF-132.9979061355
aF-132.9308721371
aF-133.0
aF-132.931622601
aF-132.9805289904
aF-132.9765829356
aF-132.9956448798
aF-132.9992089564
aF-133.0
aF-132.9982035954
aF-132.9893494525
a.