(lp0
F-265.9863552743
aF-266.0
aF-266.0
aF-265.9173155678
aF-266.0
aF-266.0
aF-265.9869328038
aF-265.9537683504
aF-265.7954582674
aF-266.0
aF-266.0
aF-265.9646635449
aF-265.9753053974
aF-266.0
aF-265.9856333514
aF-265.9795228472
aF-265.9639244478
aF-265.9607837692
aF-265.9912069427
aF-265.9866223299
aF-265.9827888137
aF-265.9564963504
aF-265.9379919798
aF-265.9845041796
aF-265.9384953188
aF-265.9967883842
aF-265.9758142586
aF-266.0
aF-266.0
aF-265.9287737013
aF-265.9908143264
aF-265.9386956271
aF-266.0
aF-265.9614861433
aF-265.9778858583
aF-265.9317677965
aF-265.8684116329
aF-265.9619981533
aF-266.0
aF-266.0
aF-265.9652636721
aF-266.0
aF-266.0
aF-265.8973232787
aF-266.0
aF-265.989793285
aF-265.8970945477
aF-265.9762352479
aF-265.9598690115
aF-265.8869003416
aF-265.9657673558
aF-265.9787956361
aF-265.9558266874
aF-266.0
aF-266.0
aF-266.0
aF-266.0
aF-265.9748314774
aF-266.0
aF-265.9642426331
aF-265.9744855797
aF-266.0
aF-265.9881625439
aF-265.9751767664
aF-265.9967814752
aF-265.9461599796
aF-265.9965307395
aF-265.9744242476
aF-265.9599452055
aF-265.9820396203
aF-266.0
aF-266.0
aF-265.9851957679
aF-266.0
aF-266.0
aF-266.0
aF-265.9558639468
aF-265.9979061355
aF-266.0
aF-265.9188613345
aF-266.0
aF-265.9566502841
aF-265.9428810499
aF-266.0
aF-266.0
aF-265.979804732
aF-265.9938578306
aF-265.9532113243
aF-265.9876465334
aF-265.9426738177
aF-265.9682763161
aF-266.0
aF-265.9438128109
aF-265.9525823054
aF-266.0
aF-266.0
aF-265.9743976148
aF-265.9832059425
aF-265.9651974928
aF-265.8918348365
aF-266.0
a.