(lp0
F-136.8806744783
aF-137.0
aF-136.9989855717
aF-136.967262832
aF-137.0
aF-137.0
aF-136.9843064287
aF-136.9583644669
aF-136.99992519888573
aF-136.9980936537
aF-136.8588722219
aF-136.9772309405
aF-137.0
aF-136.956816449
aF-136.9967814752
aF-137.0
aF-137.0
aF-136.9515199496
aF-136.8138599386
aF-136.8670785418
aF-136.9807859259
aF-136.9465933161
aF-136.9449720718
aF-137.0
aF-137.0
aF-136.9607837692
aF-136.8751910282
aF-136.92785325
aF-136.957367318
aF-136.9400617219
aF-136.9910154712
aF-136.9680502569
aF-136.9602789588
aF-137.0
aF-137.0
aF-137.0
aF-136.9567243293
aF-137.0
aF-136.9155965967
aF-137.0
aF-136.9833025897
aF-136.9597875986
aF-136.9721454303
aF-136.8336122008
aF-137.0
aF-137.0
aF-137.0
aF-137.0
aF-137.0
aF-136.9244965303
aF-136.897359178
aF-136.9579238167
aF-137.0
aF-136.9945275686
aF-136.9975422
aF-136.9768306933
aF-136.9766928921
aF-136.9448705915
aF-137.0
aF-136.984673228
aF-136.9881625439
aF-136.9532113243
aF-136.8938221407
aF-136.7954582674
aF-137.0
aF-136.9461599796
aF-137.0
aF-136.9382925926
aF-136.9933042203
aF-136.9553945732
aF-137.0
aF-136.8944526118
aF-136.9741663485
aF-137.0
aF-137.0
aF-136.8360188894
aF-137.0
aF-136.9958920489
aF-136.9648705674
aF-136.9894849739
aF-137.0
aF-137.0
aF-137.0
aF-136.9998351548
aF-136.9641727508
aF-136.980792964
aF-136.8996873046
aF-136.9840489589
aF-136.9242149537
aF-136.9320512594
aF-137.0
aF-136.9392284951
aF-136.9733556628
aF-136.9730374694
aF-137.0
aF-136.9673076695
aF-136.9511791708
aF-136.9805242966
aF-136.9789974635
aF-137.0
aF-136.9788446976
aF-137.0
aF-136.9808783313
aF-137.0
aF-137.0
aF-136.9391401939
aF-136.9538929131
aF-136.9915598143
aF-136.9981410779
aF-137.0
aF-137.0
aF-137.0
aF-137.0
aF-137.0
aF-136.9665962725
aF-136.9956342698
aF-136.9069583531
aF-137.0
aF-137.0
aF-136.9604654839
aF-136.9329128683
aF-137.0
aF-136.9836388118
aF-137.0
aF-137.0
aF-137.0
aF-136.9837064929
aF-137.0
aF-136.9780013245
aF-137.0
aF-136.9804283733
aF-136.9892941577
aF-137.0
aF-136.8068215872
aF-136.9810706567
aF-136.8855923458
aF-136.9819557129
aF-137.0
aF-136.8999158092
aF-137.0
aF-136.9559453143
aF-136.9077919425
aF-136.9998889871
aF-136.993956468
aF-136.9394737407
aF-137.0
aF-136.9802879035
aF-137.0
aF-136.8516796895
aF-136.9856333514
aF-137.0
aF-136.93111531
aF-136.9619690358
aF-136.9991149465
aF-136.9459201106
aF-137.0
aF-136.930363704
aF-137.0
aF-136.940405755
aF-136.9959368227
aF-136.9188613345
aF-136.9820085023
aF-136.9923415987
aF-136.888925872
aF-137.0
aF-136.9828562065
aF-137.0
aF-136.8150431132
aF-136.8245118581
aF-137.0
aF-136.969866919
aF-136.9629772681
aF-136.9070620924
aF-137.0
aF-136.9028906936
aF-137.0
aF-137.0
aF-137.0
aF-137.0
aF-136.9277997064
aF-136.9819326702
aF-137.0
aF-136.99996161554964
aF-136.9310364839
aF-136.8409701258
aF-137.0
aF-137.0
aF-136.9635864931
aF-136.9943299437
aF-136.9614861433
aF-137.0
aF-136.9188161201
aF-136.998129963
aF-136.981584907
aF-136.9917680703
aF-136.9949068929
aF-137.0
aF-137.0
aF-136.9740717525
aF-136.9561541212
aF-136.9648345305
aF-137.0
aF-136.9802330486
aF-136.9882991778
a.