(lp0
F0.0
aF0.0
aF0.0
aF0.0
aF0.0
aF0.0
aF0.0
aF0.0
aF0.0
aF0.0
aF0.0
aF0.0
aF0.0
aF0.0
aF0.0
aF0.0
aF0.0
aF0.0
aF0.0
aF0.0
aF0.0
aF0.0
aF0.0
aF0.0
aF0.0
aF0.0
aF0.0
aF0.0
aF0.0
aF0.0
aF0.0
aF0.0
aF0.0
aF0.0
aF0.0
aF0.0
aF0.0
aF0.0
aF0.0
aF0.0
aF0.0
aF0.0
aF0.0
aF0.0
aF0.0
aF0.0
aF0.0
aF0.0
aF0.0
aF0.0
aF0.0
aF0.0
aF0.0
aF0.0
aF0.0
aF0.0
aF0.0
aF0.0
aF0.0
aF0.0
aF0.0
aF0.0
aF0.0
aF0.0
aF0.0
aF0.0
aF0.0
aF0.0
aF0.0
aF0.0
aF0.0
aF0.0
aF0.0
aF0.0
aF0.0
aF0.0
aF0.0
aF0.0
aF0.0
aF0.0
aF0.0
aF0.0
aF0.0
aF0.0
aF0.0
aF0.0
aF0.0
aF0.0
aF0.0
aF0.0
aF0.0
aF0.0
aF0.0
aF0.0
aF0.0
aF0.0
aF0.0
aF0.0
aF0.0
aF0.0
aF0.0
aF0.0
aF0.0
aF0.0
aF0.0
aF0.0
aF0.0
aF0.0
aF0.0
aF0.0
aF0.0
aF0.0
aF0.0
aF0.0
aF0.0
aF0.0
aF0.0
aF0.0
aF0.0
aF0.0
aF0.0
aF0.0
aF0.0
aF0.0
aF0.0
aF0.0
aF0.0
aF0.0
aF0.0
aF0.0
aF0.0
aF0.0
aF0.0
aF0.0
aF0.0
aF0.0
aF0.0
aF0.0001110129
aF0.0001110129
aF0.0001648452
aF0.0007910436
aF0.0008850535
aF0.0010144283
aF0.0011945113
aF0.0016684271
aF0.0017175589
aF0.0017964046
aF0.0018589221
aF0.001870037
aF0.0019063463
aF0.0020938645
aF0.002117095
aF0.0024578
aF0.0027106076
aF0.0029725781
aF0.0032006779
aF0.0032185248
aF0.0032185248
aF0.0034692605
aF0.003786059
aF0.0040631773
aF0.0041079511
aF0.0043551202
aF0.0043657302
aF0.0049780313
aF0.0050241798
aF0.0050931071
aF0.0054724314
aF0.0056700563
aF0.006043532
aF0.0063250473
aF0.0066957797
aF0.0076584013
aF0.0080106192
aF0.0081551658
aF0.0082319297
aF0.0082319297
aF0.0082956601
aF0.0084401857
aF0.0086987842
aF0.0088507419
aF0.0089845288
aF0.0099497938
aF0.0099497938
aF0.0103968515
aF0.0105150261
aF0.0106505475
aF0.0107058423
aF0.0108338224
aF0.0108368951
aF0.0108842046
aF0.0115635605
aF0.0116596241
aF0.0117008222
aF0.0118374561
aF0.0119588664
aF0.0120264858
aF0.0125497183
aF0.0125640314
aF0.0127407164
aF0.012801318
aF0.0143666486
aF0.015326772
aF0.015326772
aF0.015343077
aF0.0156935713
aF0.0157179008
aF0.0159510411
aF0.0160748328
aF0.0162628592
aF0.0162935071
aF0.0163611882
aF0.0165035401
aF0.0165474573
aF0.0166974103
aF0.0171437935
aF0.0179010936
aF0.0179914977
aF0.0179977778
aF0.0180442871
aF0.0180673298
aF0.018415093
aF0.0189293433
aF0.0191216687
aF0.019207036
aF0.0192140741
aF0.0194710096
aF0.0194757034
aF0.0195716267
aF0.0197120965
aF0.0197669514
aF0.0202229776
aF0.0210025365
aF0.0211498662
aF0.0211553024
aF0.0215217953
aF0.0219986755
aF0.0223345175
aF0.022718276
aF0.0227690595
aF0.0227690595
aF0.0229338675
aF0.0231693067
aF0.0233071079
aF0.0233473795
aF0.0234170644
aF0.0251685226
aF0.0253730784
aF0.0258336515
aF0.0259282475
aF0.0266443372
aF0.0269625306
aF0.0273126543
aF0.027640296
aF0.0278545697
aF0.0283958717
aF0.0289291893
aF0.0294083016
aF0.030133081
aF0.0310783273
aF0.0311397335
aF0.0319497431
aF0.0326923305
aF0.032737168
aF0.0328920149
aF0.0330818708
aF0.033324387
aF0.0334037275
aF0.0339118437
aF0.0351294326
aF0.0351654695
aF0.0352661127
aF0.0353464346
aF0.0358272492
aF0.0364135069
aF0.0366356984
aF0.0368723818
aF0.0370227319
aF0.0371445756
aF0.0374320493
aF0.0380309642
aF0.0385138567
aF0.0392162308
aF0.0392162308
aF0.0395345161
aF0.0397210412
aF0.0397961042
aF0.0402124014
aF0.0408443363
aF0.0411820233
aF0.0413391033
aF0.0414665022
aF0.0416355331
aF0.0420761833
aF0.042632682
aF0.042632682
aF0.043183551
aF0.0432756707
aF0.0438458788
aF0.043913516
aF0.0440546857
aF0.0446054268
aF0.0446054268
aF0.044780733
aF0.0461070869
aF0.0467886757
aF0.0468791681
aF0.0469272933
aF0.0473465064
aF0.0473864233
aF0.0484800504
aF0.0488208292
aF0.0489230358
aF0.0497701779
aF0.0507860125
aF0.053060577
aF0.0534066839
aF0.0535451322
aF0.0536387234
aF0.0538400204
aF0.0538400204
aF0.0540798894
aF0.0543235248
aF0.0547314262
aF0.0550279282
aF0.0551294085
aF0.0559933805
aF0.0576314137
aF0.0577267231
aF0.0579198161
aF0.0580330899
aF0.059065732
aF0.059594245
aF0.0599382781
aF0.0603637302
aF0.0605262593
aF0.0607715049
aF0.0608598061
aF0.060943594
aF0.0615046812
aF0.0617074074
aF0.0635059844
aF0.063608533
aF0.0666594285
aF0.0670871317
aF0.0679487406
aF0.068377399
aF0.06888469
aF0.0689635161
aF0.0691278629
aF0.069636296
aF0.0711844476
aF0.07214675
aF0.0722002936
aF0.0738650114
aF0.0744348535
aF0.0754103545
aF0.0755034697
aF0.0757850463
aF0.0781746452
aF0.0811386655
aF0.0811838799
aF0.0826844322
aF0.0841127117
aF0.0844034033
aF0.0850523106
aF0.0853740247
aF0.0861963749
aF0.0886311113
aF0.0901499312
aF0.0922080575
aF0.0922080575
aF0.0929379076
aF0.0930416469
aF0.094465398
aF0.0971093064
aF0.0990005637
aF0.1000841908
aF0.1003126954
aF0.102640822
aF0.1055473882
aF0.1061778593
aF0.1080824778
aF0.111074128
aF0.1123234426
aF0.1144076542
aF0.1193255217
aF0.1248089718
aF0.1329214582
aF0.1330903366
aF0.1393004764
aF0.1408304734
aF0.1411277781
aF0.1483203105
aF0.1590298742
aF0.1639811106
aF0.1663877992
aF0.1754881419
aF0.1849568868
aF0.1861400614
aF0.1862173565
aF0.1931784128
aF0.2029732766
aF0.2045417326
aF0.2165387746
aF3.83844503554e-05
aF5.06456475975e-06
aF7.48011142525e-05
a.