(lp0
F-252.9389783733
aF-252.9831303476
aF-253.0988499268
aF-252.9752818124
aF-252.9690652076
aF-252.9865557303
aF-253.0233434009
aF-252.9703374886
aF-252.9938270066
aF-252.9736010914
aF-252.9098786485
aF-253.0079100331
aF-252.9986935035
aF-253.0542167827
aF-252.979695724
aF-252.930363704
aF-253.0554070667
aF-252.9816543212
aF-252.9625466628
aF-253.029051154
aF-253.017384726
aF-252.8483284959
aF-252.9897931331
aF-253.0374619369
aF-252.996470874
aF-253.0487068119
aF-253.0081064433
aF-252.94125284
aF-253.0676894123
aF-252.9448705915
aF-253.0688143535
aF-253.0603478998
aF-252.9663919847
aF-252.9816627525
aF-252.9942514108
aF-252.978803974
aF-252.9890686186
aF-252.7970267234
aF-252.9919800768
aF-252.9827836047
aF-252.9913124966
aF-253.0059390555
aF-252.9693754855
aF-252.9768336508
aF-252.9751972472
aF-253.0393508266
aF-253.0016412102
aF-252.9664962325
aF-253.0012977152
aF-252.948501309
aF-252.8950272324
aF-253.0123013839
aF-252.9297353275
aF-252.9945275686
aF-253.005492336
aF-252.9809942377
aF-252.9455962751
aF-253.0786605456
aF-252.9138036251
aF-252.9958551691
aF-252.9833652099
aF-252.9822912384
aF-252.9973700501
aF-252.9509067128
aF-253.0389693888
aF-252.8781420891
aF-253.0370187083
aF-253.0527804951
aF-252.9825844926
aF-252.9804186721
aF-253.0376993059
aF-253.0119258846
aF-252.9980736612
aF-253.0631373362
aF-252.98801769
aF-252.9772309405
aF-252.9765829356
aF-253.0231701683
aF-253.0037283325
aF-253.2036971457
aF-252.9628554244
aF-252.912801864
aF-253.0194089364
aF-252.9649354624
aF-253.050821217
aF-253.0105752504
aF-252.9917680703
aF-252.9440066195
aF-252.9962156346
aF-253.0556294387
aF-252.9714044371
aF-253.0232051026
aF-252.9775846363
aF-253.0392419986
aF-252.976307868
aF-253.0563214031
aF-252.7879608995
aF-252.9242149537
aF-253.0001283944
aF-252.9600100391
aF-252.9554714279
aF-252.9439799035
aF-252.9782041239
aF-253.0167606794
aF-252.9794844819
aF-252.9911492581
aF-252.9884413748
aF-253.0552542473
aF-253.0007254886
aF-252.9975422
aF-253.0112775849
aF-252.9853369437
aF-252.9779855523
aF-252.9990803075
aF-253.0215993724
aF-252.923352431
aF-252.8683643859
aF-252.8688463136
aF-252.9635288652
aF-253.0691111916
aF-252.9940366511
aF-252.9886231369
aF-253.0087676479
aF-252.9845193719
aF-253.0328357809
aF-252.9905534408
aF-252.883956026
aF-252.9703967858
aF-252.9451746724
aF-253.0149555359
aF-252.8774974697
aF-252.9861690504
aF-252.99999493543524
aF-253.0030660263
aF-252.9226099175
aF-253.0896363928
aF-253.0602724362
aF-252.9541044378
aF-252.9788186537
aF-253.1749276411
aF-252.9717519685
aF-252.8889261961
aF-252.9937843975
aF-253.0225175481
aF-252.9575838518
aF-252.9467286697
aF-252.9245896455
aF-252.9692106847
aF-253.011852558
aF-253.0037920683
aF-252.9964664914
aF-252.9783379737
aF-253.0368215541
aF-253.0115096149
aF-252.9871924752
aF-253.0030882608
aF-252.9833929947
aF-252.9538929131
aF-252.9737729723
aF-252.9490433121
aF-252.9511791708
aF-253.025504036
aF-252.9770850803
aF-253.0065013055
aF-253.0008113614
aF-253.0479319846
aF-252.9957849447
aF-252.9942546991
aF-253.0057573978
aF-252.9584132364
aF-253.0559030008
aF-253.0020181018
aF-252.9121396138
aF-252.9344005096
aF-252.9856913577
aF-253.056901595
aF-252.9983422739
aF-252.989528971
aF-252.8496724442
aF-252.932231015
aF-253.0254702671
aF-252.9888371548
aF-253.0212519595
aF-252.9818257135
aF-253.18414339
aF-253.006426348
aF-253.0404869897
aF-253.0569584204
aF-252.9874502817
aF-252.9987551439
aF-252.9734322564
aF-252.9827464611
aF-253.0050255026
aF-252.966243667
aF-253.0049540743
aF-253.0648274068
aF-252.9660949944
aF-252.9422732769
aF-253.0322848498
aF-252.9680502569
aF-252.8984453318
aF-253.0049158638
aF-253.0113099062
aF-252.9298049832
aF-252.9892767261
aF-253.0156036438
aF-253.0161359156
aF-252.989599718
aF-252.9869050693
aF-252.8084104918
aF-252.9817731773
aF-252.9957253141
aF-252.9255651465
aF-252.9624450176
aF-253.0024373427
aF-253.0496564195
aF-253.0396972175
aF-252.9288155524
aF-252.877357904
aF-252.9338850439
aF-252.9730338357
aF-252.9058645903
aF-252.9998310918
aF-252.9565647991
aF-252.9351380073
aF-253.0006179523
aF-253.034489387
aF-253.0002200474
aF-252.9892176583
aF-252.9581250309
aF-253.0038433246
aF-252.9391401939
aF-253.0394120713
aF-252.9878672861
aF-253.0107363955
aF-252.9842846581
aF-252.9672426384
aF-252.9987013294
aF-253.0075738592
aF-252.9519227818
aF-252.9648809524
aF-252.9711092153
aF-253.0550587827
aF-253.0267905705
aF-252.9673076695
aF-252.8969244008
aF-253.0075112821
aF-253.0249619901
aF-252.8235749685
aF-252.9327144212
aF-253.0351808221
aF-253.0193619662
aF-252.954230949
aF-252.9405632882
a.