(lp0
F-252.8653083778
aF-252.899362627
aF-253.0010903587
aF-252.9705972035
aF-253.0158065738
aF-253.0128627599
aF-252.9963908056
aF-253.0105738252
aF-252.9596634458
aF-252.8896536212
aF-252.9631276182
aF-253.0160692165
aF-253.0026596904
aF-253.0528026037
aF-252.8645424123
aF-252.9822138382
aF-253.0503789355
aF-253.0973419873
aF-252.9677853209
aF-252.9883974227
aF-252.9152228741
aF-252.9934700117
aF-252.9769578652
aF-252.9185852409
aF-252.9410752408
aF-253.0182992747
aF-252.9706110263
aF-252.9978444339
aF-253.0116528276
aF-252.8691276938
aF-253.0316489612
aF-252.9913012158
aF-252.9302029839
aF-253.2563930862
aF-252.9626740362
aF-252.95321187
aF-253.0202935687
aF-252.9241430527
aF-252.9420480591
aF-252.9561541212
aF-253.0606280835
aF-253.0011384423
aF-252.9828562065
aF-252.9946006078
aF-252.9938818016
aF-252.9823321425
aF-253.0693311961
aF-253.0661551731
aF-253.0869152878
aF-252.9731262053
aF-252.9923795883
aF-252.9810706567
aF-253.0266187768
aF-252.9572774058
aF-252.9668807816
aF-252.9667421169
aF-252.9339782442
aF-252.9185020297
aF-252.9917571694
aF-252.9730374694
aF-252.9982035954
aF-252.9751514148
aF-253.0130766004
aF-252.8719322886
aF-252.8647044696
aF-252.9201448321
aF-253.0404696413
aF-252.9820422005
aF-253.0133256334
aF-252.9775602997
aF-252.9643289936
aF-252.931193445
aF-252.8670785418
aF-253.0250916653
aF-252.9220811326
aF-252.9837064929
aF-252.9023677012
aF-253.0088435043
aF-253.0432646108
aF-253.169739898
aF-252.9901172583
aF-252.9964020688
aF-252.9878014501
aF-252.990285992
aF-252.9037958447
aF-252.9833025897
aF-253.0461694327
aF-252.9436111614
aF-252.9792578532
aF-252.9405043854
aF-252.9515199496
aF-252.9692975391
aF-252.9201985916
aF-252.9814635275
aF-253.0099055779
aF-253.0347723076
aF-252.9613881459
aF-252.9548544562
aF-253.0245135474
aF-252.9798779852
aF-252.9821690078
aF-253.0534949122
aF-252.9768306933
aF-253.0388661335
aF-252.9065878138
aF-252.977879624
aF-253.0041595551
aF-252.9704437209
aF-252.9430884829
aF-252.9383695032
aF-252.9959368227
aF-252.973888011
aF-253.0017804614
aF-253.0227576202
aF-252.9794661724
aF-252.8874383306
aF-253.0053472833
aF-252.9992089564
aF-252.99992519888573
aF-252.9771070048
aF-252.9641727508
aF-252.9965968453
aF-252.957367318
aF-252.9600621912
aF-252.9484934032
aF-252.9522834496
aF-252.8362201592
aF-253.0704049793
aF-252.9437590858
aF-252.9760151086
aF-253.0715900687
aF-253.0743079099
aF-253.0138644153
aF-252.956816449
aF-253.0255223681
aF-252.9633273181
aF-252.8876765574
aF-252.9863224198
aF-252.9972893924
aF-252.9617714051
aF-252.94782766
aF-252.9566217364
aF-252.992585044
aF-252.9763257576
aF-252.9104754891
aF-252.9313056152
aF-253.0136977143
aF-253.0248202321
aF-252.8861721923
aF-252.9689906769
aF-252.9863552743
aF-253.0089266195
aF-253.0045201669
aF-252.9173155678
aF-253.065970224
aF-253.0512894492
aF-252.9869328038
aF-252.9537683504
aF-252.7954582674
aF-253.0494393665
aF-253.0652112737
aF-252.9646635449
aF-252.9753053974
aF-253.0449509303
aF-252.9856333514
aF-252.9795228472
aF-252.9639244478
aF-252.9607837692
aF-252.9912069427
aF-252.9866223299
aF-252.9827888137
aF-252.9564963504
aF-252.9379919798
aF-252.9845041796
aF-252.9384953188
aF-252.9967883842
aF-252.9758142586
aF-253.0199065333
aF-253.0361659721
aF-252.9287737013
aF-252.9908143264
aF-252.9386956271
aF-253.006321259
aF-252.9614861433
aF-252.9778858583
aF-252.9317677965
aF-252.8684116329
aF-252.9619981533
aF-253.0528420698
aF-253.0668161709
aF-252.9652636721
aF-253.0870116228
aF-253.0094976583
aF-252.8973232787
aF-253.0630937506
aF-252.989793285
aF-252.8970945477
aF-252.9762352479
aF-252.9598690115
aF-252.8869003416
aF-252.9657673558
aF-252.9787956361
aF-252.9558266874
aF-253.0216403059
aF-253.0118403676
aF-253.0030369402
aF-253.0148421043
aF-252.9748314774
aF-253.052277511
aF-252.9642426331
aF-252.9744855797
aF-253.0313900853
aF-252.9881625439
aF-252.9751767664
aF-252.9967814752
aF-252.9461599796
aF-252.9965307395
aF-252.9744242476
aF-252.9599452055
aF-252.9820396203
aF-253.108555906
aF-253.0018216245
aF-252.9851957679
aF-253.0460414855
aF-253.0550154529
aF-253.041629279
aF-252.9558639468
aF-252.9979061355
aF-253.0080901397
aF-252.9188613345
aF-253.0604778157
aF-252.9566502841
aF-252.9428810499
aF-253.0250034
aF-253.0119506679
aF-252.979804732
aF-252.9938578306
aF-252.9532113243
aF-252.9876465334
aF-252.9426738177
aF-252.9682763161
aF-253.0036522813
aF-252.9438128109
aF-252.9525823054
aF-253.0012328086
aF-253.1100883652
aF-252.9743976148
aF-252.9832059425
aF-252.9651974928
aF-252.8918348365
aF-253.0077081074
aF-252.8982302593
aF-252.9474148579
aF-253.2425519538
a.